; Function Attrs: nounwind uwtable
define dso_local range(i32 0, 2) i32 @lpGetIntegerValue(ptr noundef captures(address) %0, ptr noundef writeonly captures(none) %1) local_unnamed_addr #3 {
  %3 = alloca i64, align 8
  call void @llvm.lifetime.start.p0(i64 8, ptr nonnull %3) #20
  %4 = call ptr @lpGet(ptr noundef %0, ptr noundef nonnull %3, ptr noundef null)
  %.not = icmp eq ptr %4, null
  br i1 %.not, label %5, label %7

5:                                                ; preds = %2
  %6 = load i64, ptr %3, align 8, !tbaa !10
  store i64 %6, ptr %1, align 8, !tbaa !19
  br label %7

7:                                                ; preds = %2, %5
  %.0 = phi i32 [ 1, %5 ], [ 0, %2 ]
  call void @llvm.lifetime.end.p0(i64 8, ptr nonnull %3) #20
  ret i32 %.0
}